target datalayout = "e-m:e-p270:32:32-p271:32:32-p272:64:64-i64:64-i128:128-f80:128-n8:16:32:64-S128"
target triple = "x86_64-pc-linux-gnu"

%"class.std::__cxx11::basic_string" = type { %"struct.std::__cxx11::basic_string<char>::_Alloc_hider", i64, %union.anon }
%"struct.std::__cxx11::basic_string<char>::_Alloc_hider" = type { ptr }
%union.anon = type { i64, [8 x i8] }
%"struct.osgeo::proj::operation::ParamNameCode" = type { ptr, i32 }

@.str.21 = private unnamed_addr constant [19 x i8] c"Latitude of origin\00", align 1
@.str.22 = private unnamed_addr constant [13 x i8] c"Scale factor\00", align 1

; Function Attrs: mustprogress nounwind uwtable
define available_externally noundef ptr @_ZNKSt7__cxx1112basic_stringIcSt11char_traitsIcESaIcEE7_M_dataEv(ptr noundef nonnull align 8 dereferenceable(32) %0) #1 align 2 {
  %2 = alloca ptr, align 8
  store ptr %0, ptr %2, align 8, !tbaa !8
  %3 = load ptr, ptr %2, align 8
  %4 = getelementptr inbounds nuw %"class.std::__cxx11::basic_string", ptr %3, i32 0, i32 0
  %5 = getelementptr inbounds nuw %"struct.std::__cxx11::basic_string<char>::_Alloc_hider", ptr %4, i32 0, i32 0
  %6 = load ptr, ptr %5, align 8, !tbaa !879
  ret ptr %6
}

; Function Attrs: mustprogress nounwind uwtable
define available_externally noundef ptr @_ZNKSt7__cxx1112basic_stringIcSt11char_traitsIcESaIcEE5c_strEv(ptr noundef nonnull align 8 dereferenceable(32) %0) #1 align 2 personality ptr @__gxx_personality_v0 {
  %2 = alloca ptr, align 8
  store ptr %0, ptr %2, align 8, !tbaa !8
  %3 = load ptr, ptr %2, align 8
  %4 = invoke noundef ptr @_ZNKSt7__cxx1112basic_stringIcSt11char_traitsIcESaIcEE7_M_dataEv(ptr noundef nonnull align 8 dereferenceable(32) %3)
          to label %5 unwind label %6

5:                                                ; preds = %1
  ret ptr %4

6:                                                ; preds = %1
  %7 = landingpad { ptr, i32 }
          catch ptr null
  %8 = extractvalue { ptr, i32 } %7, 0
  call void @__clang_call_terminate(ptr %8) #30
  unreachable
}

; Function Attrs: mustprogress nounwind willreturn memory(read) uwtable
define noundef i32 @_ZNK5osgeo4proj9operation18OperationParameter11getEPSGCodeEv(ptr noundef nonnull align 8 dereferenceable(56) %0) #14 align 2 personality ptr @__gxx_personality_v0 {
  %2 = alloca i32, align 4
  %3 = alloca ptr, align 8
  %4 = alloca i32, align 4
  %5 = alloca ptr, align 8
  %6 = alloca i64, align 8
  %7 = alloca ptr, align 8
  %8 = alloca i64, align 8
  %9 = alloca i32, align 4
  %10 = alloca ptr, align 8
  store ptr %0, ptr %3, align 8, !tbaa !290
  %11 = load ptr, ptr %3, align 8
  call void @llvm.lifetime.start.p0(i64 4, ptr %4) #18
  %12 = call noundef i32 @_ZNK5osgeo4proj6common16IdentifiedObject11getEPSGCodeEv(ptr noundef nonnull align 8 dereferenceable(40) %11) #11
  store i32 %12, ptr %4, align 4, !tbaa !206
  %13 = load i32, ptr %4, align 4, !tbaa !206
  %14 = icmp eq i32 %13, 0
  br i1 %14, label %15, label %61

15:                                               ; preds = %1
  call void @llvm.lifetime.start.p0(i64 8, ptr %5) #18
  %16 = call noundef nonnull align 8 dereferenceable(32) ptr @_ZNK5osgeo4proj6common16IdentifiedObject7nameStrB5cxx11Ev(ptr noundef nonnull align 8 dereferenceable(40) %11) #11
  store ptr %16, ptr %5, align 8, !tbaa !8
  call void @llvm.lifetime.start.p0(i64 8, ptr %6) #18
  store i64 0, ptr %6, align 8, !tbaa !83
  call void @llvm.lifetime.start.p0(i64 8, ptr %7) #18
  %17 = invoke noundef ptr @_ZN5osgeo4proj9operation17getParamNameCodesERm(ptr noundef nonnull align 8 dereferenceable(8) %6)
          to label %18 unwind label %65

18:                                               ; preds = %15
  store ptr %17, ptr %7, align 8, !tbaa !292
  call void @llvm.lifetime.start.p0(i64 8, ptr %8) #18
  store i64 0, ptr %8, align 8, !tbaa !83
  br label %19

19:                                               ; preds = %42, %18
  %20 = load i64, ptr %8, align 8, !tbaa !83
  %21 = load i64, ptr %6, align 8, !tbaa !83
  %22 = icmp ult i64 %20, %21
  br i1 %22, label %24, label %23

23:                                               ; preds = %19
  store i32 2, ptr %9, align 4
  br label %45

24:                                               ; preds = %19
  call void @llvm.lifetime.start.p0(i64 8, ptr %10) #18
  %25 = load ptr, ptr %7, align 8, !tbaa !292
  %26 = load i64, ptr %8, align 8, !tbaa !83
  %27 = getelementptr inbounds nuw %"struct.osgeo::proj::operation::ParamNameCode", ptr %25, i64 %26
  store ptr %27, ptr %10, align 8, !tbaa !292
  %28 = load ptr, ptr %5, align 8, !tbaa !8
  %29 = call noundef ptr @_ZNKSt7__cxx1112basic_stringIcSt11char_traitsIcESaIcEE5c_strEv(ptr noundef nonnull align 8 dereferenceable(32) %28) #18
  %30 = load ptr, ptr %10, align 8, !tbaa !292
  %31 = getelementptr inbounds nuw %"struct.osgeo::proj::operation::ParamNameCode", ptr %30, i32 0, i32 0
  %32 = load ptr, ptr %31, align 8, !tbaa !294
  %33 = call noundef zeroext i1 @_ZN5osgeo4proj8metadata10Identifier16isEquivalentNameEPKcS4_(ptr noundef %29, ptr noundef %32) #18
  br i1 %33, label %34, label %38

34:                                               ; preds = %24
  %35 = load ptr, ptr %10, align 8, !tbaa !292
  %36 = getelementptr inbounds nuw %"struct.osgeo::proj::operation::ParamNameCode", ptr %35, i32 0, i32 1
  %37 = load i32, ptr %36, align 8, !tbaa !296
  store i32 %37, ptr %2, align 4
  store i32 1, ptr %9, align 4
  br label %39

38:                                               ; preds = %24
  store i32 0, ptr %9, align 4
  br label %39

39:                                               ; preds = %38, %34
  call void @llvm.lifetime.end.p0(i64 8, ptr %10) #18
  %40 = load i32, ptr %9, align 4
  switch i32 %40, label %45 [
    i32 0, label %41
  ]

41:                                               ; preds = %39
  br label %42

42:                                               ; preds = %41
  %43 = load i64, ptr %8, align 8, !tbaa !83
  %44 = add i64 %43, 1
  store i64 %44, ptr %8, align 8, !tbaa !83
  br label %19, !llvm.loop !297

45:                                               ; preds = %39, %23
  call void @llvm.lifetime.end.p0(i64 8, ptr %8) #18
  %46 = load i32, ptr %9, align 4
  switch i32 %46, label %58 [
    i32 2, label %47
  ]

47:                                               ; preds = %45
  %48 = load ptr, ptr %5, align 8, !tbaa !8
  %49 = call noundef ptr @_ZNKSt7__cxx1112basic_stringIcSt11char_traitsIcESaIcEE5c_strEv(ptr noundef nonnull align 8 dereferenceable(32) %48) #18
  %50 = call noundef zeroext i1 @_ZN5osgeo4proj8metadata10Identifier16isEquivalentNameEPKcS4_(ptr noundef %49, ptr noundef @.str.21) #18
  br i1 %50, label %51, label %52

51:                                               ; preds = %47
  store i32 8801, ptr %2, align 4
  store i32 1, ptr %9, align 4
  br label %58

52:                                               ; preds = %47
  %53 = load ptr, ptr %5, align 8, !tbaa !8
  %54 = call noundef ptr @_ZNKSt7__cxx1112basic_stringIcSt11char_traitsIcESaIcEE5c_strEv(ptr noundef nonnull align 8 dereferenceable(32) %53) #18
  %55 = call noundef zeroext i1 @_ZN5osgeo4proj8metadata10Identifier16isEquivalentNameEPKcS4_(ptr noundef %54, ptr noundef @.str.22) #18
  br i1 %55, label %56, label %57

56:                                               ; preds = %52
  store i32 8805, ptr %2, align 4
  store i32 1, ptr %9, align 4
  br label %58

57:                                               ; preds = %52
  store i32 0, ptr %9, align 4
  br label %58

58:                                               ; preds = %57, %56, %51, %45
  call void @llvm.lifetime.end.p0(i64 8, ptr %7) #18
  call void @llvm.lifetime.end.p0(i64 8, ptr %6) #18
  call void @llvm.lifetime.end.p0(i64 8, ptr %5) #18
  %59 = load i32, ptr %9, align 4
  switch i32 %59, label %63 [
    i32 0, label %60
  ]

60:                                               ; preds = %58
  br label %61

61:                                               ; preds = %60, %1
  %62 = load i32, ptr %4, align 4, !tbaa !206
  store i32 %62, ptr %2, align 4
  store i32 1, ptr %9, align 4
  br label %63

63:                                               ; preds = %61, %58
  call void @llvm.lifetime.end.p0(i64 4, ptr %4) #18
  %64 = load i32, ptr %2, align 4
  ret i32 %64

65:                                               ; preds = %15
  %66 = landingpad { ptr, i32 }
          catch ptr null
  %67 = extractvalue { ptr, i32 } %66, 0
  call void @__clang_call_terminate(ptr %67) #30
  unreachable
}