; Function Attrs: mustprogress nofree nounwind willreturn memory(read) uwtable
define noundef i32 @_ZNK5osgeo4proj9operation18OperationParameter11getEPSGCodeEv(ptr noundef nonnull readonly align 8 dereferenceable(56) %0) local_unnamed_addr #23 align 2 personality ptr @__gxx_personality_v0 {
  %2 = alloca i64, align 8
  %3 = tail call noundef i32 @_ZNK5osgeo4proj6common16IdentifiedObject11getEPSGCodeEv(ptr noundef nonnull align 8 dereferenceable(40) %0) #51
  %4 = icmp eq i32 %3, 0
  br i1 %4, label %5, label %23

5:                                                ; preds = %1
  %6 = tail call noundef nonnull align 8 dereferenceable(32) ptr @_ZNK5osgeo4proj6common16IdentifiedObject7nameStrB5cxx11Ev(ptr noundef nonnull align 8 dereferenceable(40) %0) #51
  call void @llvm.lifetime.start.p0(i64 8, ptr nonnull %2) #46
  store i64 0, ptr %2, align 8, !tbaa !21
  %7 = invoke noundef ptr @_ZN5osgeo4proj9operation17getParamNameCodesERm(ptr noundef nonnull align 8 dereferenceable(8) %2)
          to label %.preheader unwind label %25

.preheader:                                       ; preds = %5
  %8 = load i64, ptr %2, align 8, !tbaa !21
  %.not27.not = icmp eq i64 %8, 0
  br i1 %.not27.not, label %._crit_edge, label %.lr.ph

9:                                                ; preds = %.lr.ph
  %10 = add nuw i64 %.02028, 1
  %11 = load i64, ptr %2, align 8, !tbaa !21
  %.not = icmp ult i64 %10, %11
  br i1 %.not, label %.lr.ph, label %._crit_edge, !llvm.loop !289

.lr.ph:                                           ; preds = %.preheader, %9
  %.02028 = phi i64 [ %10, %9 ], [ 0, %.preheader ]
  %12 = getelementptr inbounds nuw %"struct.osgeo::proj::operation::ParamNameCode", ptr %7, i64 %.02028
  %13 = load ptr, ptr %6, align 8, !tbaa !20
  %14 = load ptr, ptr %12, align 8, !tbaa !290
  %15 = call noundef zeroext i1 @_ZN5osgeo4proj8metadata10Identifier16isEquivalentNameEPKcS4_(ptr noundef %13, ptr noundef %14) #46
  br i1 %15, label %.thread22, label %9

.thread22:                                        ; preds = %.lr.ph
  %16 = getelementptr inbounds nuw i8, ptr %12, i64 8
  %17 = load i32, ptr %16, align 8, !tbaa !292
  br label %.thread24

._crit_edge:                                      ; preds = %9, %.preheader
  %18 = load ptr, ptr %6, align 8, !tbaa !20
  %19 = call noundef zeroext i1 @_ZN5osgeo4proj8metadata10Identifier16isEquivalentNameEPKcS4_(ptr noundef %18, ptr noundef nonnull @.str.21) #46
  br i1 %19, label %.thread24, label %20

.thread24:                                        ; preds = %._crit_edge, %.thread22
  %.3.ph = phi i32 [ %17, %.thread22 ], [ 8801, %._crit_edge ]
  call void @llvm.lifetime.end.p0(i64 8, ptr nonnull %2) #46
  br label %24

20:                                               ; preds = %._crit_edge
  %21 = load ptr, ptr %6, align 8, !tbaa !20
  %22 = call noundef zeroext i1 @_ZN5osgeo4proj8metadata10Identifier16isEquivalentNameEPKcS4_(ptr noundef %21, ptr noundef nonnull @.str.22) #46
  call void @llvm.lifetime.end.p0(i64 8, ptr nonnull %2) #46
  br i1 %22, label %24, label %23

23:                                               ; preds = %20, %1
  br label %24

24:                                               ; preds = %.thread24, %20, %23
  %.4 = phi i32 [ %3, %23 ], [ 8805, %20 ], [ %.3.ph, %.thread24 ]
  ret i32 %.4

25:                                               ; preds = %5
  %26 = landingpad { ptr, i32 }
          catch ptr null
  %27 = extractvalue { ptr, i32 } %26, 0
  call void @__clang_call_terminate(ptr %27) #49
  unreachable
}